(dp0
S'cookies'
p1
(dp2
S'wxloadtime'
p3
S'1560330980'
p4
sS'webwx_data_ticket'
p5
S'gScjcthLRyaDoy1aTxp1mAGi'
p6
sS'wxuin'
p7
S'2538080433'
p8
sS'login_frequency'
p9
S'2'
p10
sS'MM_WX_NOTIFY_STATE'
p11
S'1'
p12
sS'MM_WX_SOUND_STATE'
p13
g12
sS'webwx_auth_ticket'
p14
S'CIsBEPGZ+aoEGoABAOQpnibZo3xx9YrZhZvkW7vyxFWI4QRIseMG/Sbjiqyvb39xdcQZ9iuGoJIrUh3Uqc4U4sT38HnNz2GNgTQXWvMUnViLAutKJcSTXC7ot2nrcKSqPiI6dmAuj3Dg9Ls45Wl0SUkeuKC30gcMerSO8kbOJDPdk+2VL4B2H9fY6u8='
p15
sS'last_wxuin'
p16
S'2538080433'
p17
sS'webwxuvid'
p18
S'd49a3bb325a874aa9c275d7bcd6974f855104c181fede0a77f2f487e54dff278afc393616081f8af6922a423805aa736'
p19
sS'wxpluginkey'
p20
S'1560329805'
p21
sS'wxsid'
p22
S't8F51vwA1FpuH3Vv'
p23
sS'mm_lang'
p24
S'zh_CN'
p25
ssS'version'
p26
S'1.3.10'
p27
sS'storage'
p28
(dp29
S'userName'
p30
V@83883e113a438b70d6791e0070bf863ad15b279118e7d785a65fe90a8e178769
p31
sS'lastInputUserName'
p32
NsS'memberList'
p33
ccopy_reg
_reconstructor
p34
(citchat.storage.templates
ContactList
p35
c__builtin__
list
p36
(lp37
g34
(citchat.storage.templates
User
p38
c__builtin__
dict
p39
(dp40
S'UserName'
p41
g31
sS'City'
p42
S''
p43
sS'DisplayName'
p44
g43
sS'UniFriend'
p45
I0
sS'OwnerUin'
p46
I0
sS'MemberList'
p47
g34
(g35
g36
(lp48
tp49
Rp50
I1
bsS'PYQuanPin'
p51
V
p52
sS'RemarkPYInitial'
p53
g52
sS'Uin'
p54
I2538080433
sS'AppAccountFlag'
p55
I0
sS'VerifyFlag'
p56
I0
sS'Province'
p57
g43
sS'KeyWord'
p58
g43
sS'RemarkName'
p59
g52
sS'PYInitial'
p60
g52
sS'ChatRoomId'
p61
I0
sS'HideInputBarFlag'
p62
I0
sVHeadImgFlag
p63
I1
sS'EncryChatRoomId'
p64
g43
sS'AttrStatus'
p65
I0
sS'SnsFlag'
p66
I49
sS'MemberCount'
p67
I0
sVWebWxPluginSwitch
p68
I0
sS'Alias'
p69
g43
sS'Signature'
p70
g52
sS'ContactFlag'
p71
I0
sS'NickName'
p72
Vkevin
p73
sS'RemarkPYQuanPin'
p74
g52
sS'HeadImgUrl'
p75
V/cgi-bin/mmwebwx-bin/webwxgeticon?seq=768631879&username=@83883e113a438b70d6791e0070bf863ad15b279118e7d785a65fe90a8e178769&skey=@crypt_763d4564_ae7cdd9d8456e0dcc85be0773196f064
p76
sS'Sex'
p77
I1
sS'StarFriend'
p78
I0
sS'Statues'
p79
I0
stp80
Rp81
I1
bag34
(g38
g39
(dp82
VUserName
p83
V@490c6bb2ad958892e5d531f7c938065e
p84
sVCity
p85
V\u671d\u9633
p86
sVSnsFlag
p87
I49
sVDisplayName
p88
g52
sVUniFriend
p89
I0
sVMemberCount
p90
I0
sVOwnerUin
p91
I0
sVMemberList
p92
g50
sVAlias
p93
g52
sVPYQuanPin
p94
VYocn
p95
sVSignature
p96
V\u8c28\u8a00\u3001\u614e\u884c\u3001
p97
sVRemarkPYInitial
p98
g52
sVContactFlag
p99
I3
sVUin
p100
I0
sVNickName
p101
VYocn
p102
sVAppAccountFlag
p103
I0
sVVerifyFlag
p104
I0
sVRemarkPYQuanPin
p105
g52
sVHeadImgUrl
p106
V/cgi-bin/mmwebwx-bin/webwxgeticon?seq=673200777&username=@490c6bb2ad958892e5d531f7c938065e&skey=@crypt_763d4564_ae7cdd9d8456e0dcc85be0773196f064
p107
sVKeyWord
p108
Vzha
p109
sVProvince
p110
V\u5317\u4eac
p111
sVPYInitial
p112
VYOCN
p113
sVRemarkName
p114
g52
sVIsOwner
p115
I0
sVSex
p116
I1
sVStarFriend
p117
I0
sVHideInputBarFlag
p118
I0
sVChatRoomId
p119
I0
sVEncryChatRoomId
p120
g52
sVAttrStatus
p121
I4444263
sVStatues
p122
I0
stp123
Rp124
I1
bag34
(g38
g39
(dp125
VUserName
p126
V@0564ba496b20d44ec1be3b1a9e3363ff
p127
sVCity
p128
g52
sVSnsFlag
p129
I145
sVDisplayName
p130
g52
sVUniFriend
p131
I0
sVMemberCount
p132
I0
sVOwnerUin
p133
I0
sVMemberList
p134
g50
sVAlias
p135
g52
sVPYQuanPin
p136
Vspanclassemojiemoji1f334spanOLDWANG
p137
sVSignature
p138
V\u7af9\u6756\u8292\u978b\u8f7b\u80dc\u9a6c\uff0c\u4e00\u84d1\u70df\u96e8\u4efb\u5e73\u751f\u3002
p139
sVRemarkPYInitial
p140
g52
sVContactFlag
p141
I3
sVUin
p142
I0
sVNickName
p143
V\U0001f334 OLD_WANG
p144
sVAppAccountFlag
p145
I0
sVVerifyFlag
p146
I0
sVRemarkPYQuanPin
p147
g52
sVHeadImgUrl
p148
V/cgi-bin/mmwebwx-bin/webwxgeticon?seq=673200691&username=@0564ba496b20d44ec1be3b1a9e3363ff&skey=@crypt_763d4564_ae7cdd9d8456e0dcc85be0773196f064
p149
sVKeyWord
p150
Vdon
p151
sVProvince
p152
V\u5317\u4eac
p153
sVPYInitial
p154
VSPANCLASSEMOJIEMOJI1F334SPANOLDWANG
p155
sVRemarkName
p156
g52
sVIsOwner
p157
I0
sVSex
p158
I1
sVStarFriend
p159
I0
sVHideInputBarFlag
p160
I0
sVChatRoomId
p161
I0
sVEncryChatRoomId
p162
g52
sVAttrStatus
p163
I33765479
sVStatues
p164
I0
stp165
Rp166
I1
bag34
(g38
g39
(dp167
VUserName
p168
V@7304129ccfd9ad113a57efde40d84905855f054145906ac05c145087062737bb
p169
sVCity
p170
g52
sVSnsFlag
p171
I0
sVDisplayName
p172
g52
sVUniFriend
p173
I0
sVMemberCount
p174
I0
sVOwnerUin
p175
I0
sVMemberList
p176
g50
sVAlias
p177
g52
sVPYQuanPin
p178
Vwojuni
p179
sVSignature
p180
g52
sVRemarkPYInitial
p181
g52
sVContactFlag
p182
I3
sVUin
p183
I0
sVNickName
p184
V\u8717\u5c45\u4f60
p185
sVAppAccountFlag
p186
I0
sVVerifyFlag
p187
I0
sVRemarkPYQuanPin
p188
g52
sVHeadImgUrl
p189
V/cgi-bin/mmwebwx-bin/webwxgeticon?seq=673200271&username=@7304129ccfd9ad113a57efde40d84905855f054145906ac05c145087062737bb&skey=@crypt_763d4564_ae7cdd9d8456e0dcc85be0773196f064
p190
sVKeyWord
p191
g52
sVProvince
p192
g52
sVPYInitial
p193
VWJN
p194
sVRemarkName
p195
g52
sVIsOwner
p196
I0
sVSex
p197
I0
sVStarFriend
p198
I0
sVHideInputBarFlag
p199
I0
sVChatRoomId
p200
I0
sVEncryChatRoomId
p201
g52
sVAttrStatus
p202
I233509
sVStatues
p203
I0
stp204
Rp205
I1
bag34
(g38
g39
(dp206
VUserName
p207
V@bad3c645e50dda960bc6fea281d7df09
p208
sVCity
p209
V\u90a2\u53f0
p210
sVSnsFlag
p211
I49
sVDisplayName
p212
g52
sVUniFriend
p213
I0
sVMemberCount
p214
I0
sVOwnerUin
p215
I0
sVMemberList
p216
g50
sVAlias
p217
g52
sVPYQuanPin
p218
Vliujunxiangwoaiwojia
p219
sVSignature
p220
V\u5411\u4e0a\u5427\uff01\u5c11\u5e74
p221
sVRemarkPYInitial
p222
g52
sVContactFlag
p223
I3
sVUin
p224
I0
sVNickName
p225
V\u5218\u541b\u7965\uff08\u6211\u7231\u6211\u5bb6\uff09
p226
sVAppAccountFlag
p227
I0
sVVerifyFlag
p228
I0
sVRemarkPYQuanPin
p229
g52
sVHeadImgUrl
p230
V/cgi-bin/mmwebwx-bin/webwxgeticon?seq=673200423&username=@bad3c645e50dda960bc6fea281d7df09&skey=@crypt_763d4564_ae7cdd9d8456e0dcc85be0773196f064
p231
sVKeyWord
p232
Vyin
p233
sVProvince
p234
V\u6cb3\u5317
p235
sVPYInitial
p236
VLJXWAWJ
p237
sVRemarkName
p238
g52
sVIsOwner
p239
I0
sVSex
p240
I1
sVStarFriend
p241
I0
sVHideInputBarFlag
p242
I0
sVChatRoomId
p243
I0
sVEncryChatRoomId
p244
g52
sVAttrStatus
p245
I110823
sVStatues
p246
I0
stp247
Rp248
I1
batp249
Rp250
I1
bsS'chatroomList'
p251
g34
(g35
g36
(lp252
g34
(citchat.storage.templates
Chatroom
p253
g39
(dp254
VUserName
p255
V@@f2bf8c751b97c4981af9db80dfe12056a853bb00b080e3a645bfab784c6b0bab
p256
sVCity
p257
g52
sVDisplayName
p258
g52
sVUniFriend
p259
I0
sS'Self'
p260
g34
(g38
g39
(dp261
g41
g31
sg42
g43
sg44
g43
sg45
I0
sg46
I0
sg47
g34
(g35
g36
(lp262
tp263
Rp264
I1
bsg51
g52
sg53
g52
sg54
I2538080433
sg55
I0
sg56
I0
sg57
g43
sg58
g43
sg59
g52
sg60
g52
sg61
I0
sg62
I0
sg63
I1
sg64
g43
sg65
I0
sg66
I49
sg67
I0
sg68
I0
sg69
g43
sg70
g52
sg71
I0
sg72
g73
sg74
g52
sg75
g76
sg77
I1
sg78
I0
sg79
I0
stp265
Rp266
I1
bsVMemberList
p267
g34
(g35
g36
(lp268
tp269
Rp270
I1
bsVPYQuanPin
p271
g52
sVRemarkPYInitial
p272
g52
sVSex
p273
I0
sVAppAccountFlag
p274
I0
sVVerifyFlag
p275
I0
sVProvince
p276
g52
sVKeyWord
p277
g52
sVRemarkName
p278
g52
sVPYInitial
p279
g52
sVIsOwner
p280
I0
sVChatRoomId
p281
I0
sVHideInputBarFlag
p282
I0
sVEncryChatRoomId
p283
g52
sVAttrStatus
p284
I0
sVSnsFlag
p285
I0
sVMemberCount
p286
I122
sVOwnerUin
p287
I0
sVAlias
p288
g52
sS'IsAdmin'
p289
NsVSignature
p290
g52
sVContactFlag
p291
I0
sVNickName
p292
V\u94f2\u5c4e\u5b98\u8054\u7edc\u7ad9\U0001f408\U0001f429
p293
sVRemarkPYQuanPin
p294
g52
sVHeadImgUrl
p295
V/cgi-bin/mmwebwx-bin/webwxgetheadimg?seq=0&username=@@f2bf8c751b97c4981af9db80dfe12056a853bb00b080e3a645bfab784c6b0bab&skey=@crypt_763d4564_ae7cdd9d8456e0dcc85be0773196f064
p296
sVUin
p297
I0
sVStarFriend
p298
I0
sVStatues
p299
I0
stp300
Rp301
I1
batp302
Rp303
I1
bsS'nickName'
p304
g73
sS'mpList'
p305
g34
(g35
g36
(lp306
g34
(citchat.storage.templates
MassivePlatform
p307
g39
(dp308
VUserName
p309
V@907dc82efaa3a8fc0c8521b054bb0359
p310
sVCity
p311
V\u5e7f\u5dde
p312
sVSnsFlag
p313
I0
sVDisplayName
p314
g52
sVUniFriend
p315
I0
sVMemberCount
p316
I0
sVOwnerUin
p317
I0
sVMemberList
p318
g50
sVAlias
p319
g52
sVPYQuanPin
p320
Vweixinyundong
p321
sVSignature
p322
V\u4e5f\u8bb8\u4f60\u65e9\u5df2\u4e60\u60ef\u4e00\u4e2a\u4eba\u8fd0\u52a8\u7684\u5b64\u72ec\uff0c\u5374\u4e5f\u5076\u5c14\u6e34\u671b\u5f97\u5230\u8d5e\u8d4f\u3002\u52a0\u5165\u5fae\u4fe1\u8fd0\u52a8\uff0c\u548c\u670b\u53cb\u4e00\u8d77\u70b9\u8d5e\u4e92\u52a8\u3001\u62a2\u5360\u5c01\u9762\uff0c\u5206\u4eab\u8fd0\u52a8\u7684\u5feb\u4e50\u3002
p323
sVRemarkPYInitial
p324
g52
sVContactFlag
p325
I3
sVUin
p326
I0
sVNickName
p327
V\u5fae\u4fe1\u8fd0\u52a8
p328
sVAppAccountFlag
p329
I0
sVVerifyFlag
p330
I24
sVRemarkPYQuanPin
p331
g52
sVHeadImgUrl
p332
V/cgi-bin/mmwebwx-bin/webwxgeticon?seq=627840029&username=@907dc82efaa3a8fc0c8521b054bb0359&skey=@crypt_763d4564_ae7cdd9d8456e0dcc85be0773196f064
p333
sVKeyWord
p334
Vgh_
p335
sVProvince
p336
V\u5e7f\u4e1c
p337
sVPYInitial
p338
VWXYD
p339
sVRemarkName
p340
g52
sVIsOwner
p341
I0
sVSex
p342
I0
sVStarFriend
p343
I0
sVHideInputBarFlag
p344
I0
sVChatRoomId
p345
I0
sVEncryChatRoomId
p346
g52
sVAttrStatus
p347
I0
sVStatues
p348
I0
stp349
Rp350
I1
bag34
(g307
g39
(dp351
VUserName
p352
V@0267e5b24fdab61617601c665185d47c
p353
sVCity
p354
V\u6ee8\u5dde
p355
sVSnsFlag
p356
I0
sVDisplayName
p357
g52
sVUniFriend
p358
I0
sVMemberCount
p359
I0
sVOwnerUin
p360
I0
sVMemberList
p361
g50
sVAlias
p362
g52
sVPYQuanPin
p363
g52
sVSignature
p364
V\u9633\u4fe1\u5fae\u6c47\u5546\u81f4\u529b\u4e8e\u6210\u4e3a\u7528\u6237\u7684"\u672c\u5730\u7cbe\u54c1\u751f\u6d3b\u6307\u5357"\u3002\u7531\u5fae\u76df\u7b2c\u4e09\u65b9\u5e73\u53f0\u3001\u6574\u5408\u884c\u4e1a\u4f18\u79c0\u8d44\u6e90\uff0c\u4e3a\u5546\u5bb6\u63d0\u4f9b\u4e13\u4e1a\u7684\u63a8\u5e7f\u670d\u52a1\u3002\u7f51\u7ad9\u672c\u7740\u201c\u9633\u4fe1\u5fae\u5546\u6c47\uff0c\u5929\u5929\u5e2e\u60a8\u5fd9\u201d\u7684\u7ecf\u8425\u65b9\u9488\uff0c\u7aed\u8bda\u4e3a\u767e\u59d3\u7684\u751f\u6d3b\u3001\u5de5\u4f5c\u3001\u5a31\u4e50\u4f11\u95f2\u63d0\u4f9b\u4fbf\u5229\uff0c\u8ba9\u60a8\u8db3\u4e0d\u51fa\u6237\u4f53\u9a8c\u5230\u5bb6\u95e8\u53e3\u8d2d\u7269\u7684\u4e50\u8da3\u4f53\u9a8c\uff01
p365
sVRemarkPYInitial
p366
g52
sVContactFlag
p367
I3
sVUin
p368
I0
sVNickName
p369
g52
sVAppAccountFlag
p370
I0
sVVerifyFlag
p371
I8
sVRemarkPYQuanPin
p372
g52
sVHeadImgUrl
p373
V/cgi-bin/mmwebwx-bin/webwxgeticon?seq=624920024&username=@0267e5b24fdab61617601c665185d47c&skey=@crypt_763d4564_ae7cdd9d8456e0dcc85be0773196f064
p374
sVKeyWord
p375
Vgh_
p376
sVProvince
p377
V\u5c71\u4e1c
p378
sVPYInitial
p379
g52
sVRemarkName
p380
g52
sVIsOwner
p381
I0
sVSex
p382
I0
sVStarFriend
p383
I0
sVHideInputBarFlag
p384
I0
sVChatRoomId
p385
I0
sVEncryChatRoomId
p386
g52
sVAttrStatus
p387
I0
sVStatues
p388
I0
stp389
Rp390
I1
bag34
(g307
g39
(dp391
VUserName
p392
V@68c62a5919f7a991f74ea7f9ca57792f
p393
sVCity
p394
g52
sVSnsFlag
p395
I0
sVDisplayName
p396
g52
sVUniFriend
p397
I0
sVMemberCount
p398
I0
sVOwnerUin
p399
I0
sVMemberList
p400
g50
sVAlias
p401
g52
sVPYQuanPin
p402
Vzhongjimeizhuangtiyan
p403
sVSignature
p404
V\u6211\u53f8\u662f\u4e13\u505a\u8fdb\u51fa\u53e3\u8d38\u6613\u7684\uff0c\u4e3a\u4e86\u8ba9\u66f4\u591a\u987e\u5ba2\u4f53\u9a8c\u9999\u5948\u513f\u3001\u8fea\u5965\u7b49\u56fd\u9645\u4e00\u7ebf\u5927\u54c1\u724c\u5316\u5986\u54c1\u7b49\uff0c\u516c\u53f8\u65a5\u5de8\u8d44\u4ece\u9999\u6e2f\u8f6c\u8fd0\u5e26\u56de\u56fd\u6765\u6253\u9020\u672c\u6b21\u6d3b\u52a8\uff0c\u53ea\u4e3a\u9501\u5b9a\u7ec8\u7aef\u5ba2\u6237\uff0c\u514d\u8d39\u4f53\u9a8c\uff01
p405
sVRemarkPYInitial
p406
g52
sVContactFlag
p407
I3
sVUin
p408
I0
sVNickName
p409
V\u7ec8\u7ea7\u7f8e\u5986\u4f53\u9a8c
p410
sVAppAccountFlag
p411
I0
sVVerifyFlag
p412
I8
sVRemarkPYQuanPin
p413
g52
sVHeadImgUrl
p414
V/cgi-bin/mmwebwx-bin/webwxgeticon?seq=633030019&username=@68c62a5919f7a991f74ea7f9ca57792f&skey=@crypt_763d4564_ae7cdd9d8456e0dcc85be0773196f064
p415
sVKeyWord
p416
Vgh_
p417
sVProvince
p418
VKowloon City
p419
sVPYInitial
p420
VZJMZTY
p421
sVRemarkName
p422
g52
sVIsOwner
p423
I0
sVSex
p424
I0
sVStarFriend
p425
I0
sVHideInputBarFlag
p426
I0
sVChatRoomId
p427
I0
sVEncryChatRoomId
p428
g52
sVAttrStatus
p429
I0
sVStatues
p430
I0
stp431
Rp432
I1
bag34
(g307
g39
(dp433
VUserName
p434
V@0f165ceff5be064502d16fca9a573b0b
p435
sVCity
p436
V\u6d77\u6dc0
p437
sVSnsFlag
p438
I0
sVDisplayName
p439
g52
sVUniFriend
p440
I0
sVMemberCount
p441
I0
sVOwnerUin
p442
I0
sVMemberList
p443
g50
sVAlias
p444
g52
sVPYQuanPin
p445
Vshengxiandinghuo
p446
sVSignature
p447
V\u6c83\u9c9c - \u503c\u5f97\u4fe1\u8d56\u7684\u79fb\u52a8\u751f\u9c9c\u8ba2\u8d27\u914d\u9001\u8f6f\u4ef6
p448
sVRemarkPYInitial
p449
g52
sVContactFlag
p450
I3
sVUin
p451
I0
sVNickName
p452
V\u751f\u9c9c\u8ba2\u8d27
p453
sVAppAccountFlag
p454
I0
sVVerifyFlag
p455
I8
sVRemarkPYQuanPin
p456
g52
sVHeadImgUrl
p457
V/cgi-bin/mmwebwx-bin/webwxgeticon?seq=642130083&username=@0f165ceff5be064502d16fca9a573b0b&skey=@crypt_763d4564_ae7cdd9d8456e0dcc85be0773196f064
p458
sVKeyWord
p459
Vgh_
p460
sVProvince
p461
V\u5317\u4eac
p462
sVPYInitial
p463
VSXDH
p464
sVRemarkName
p465
g52
sVIsOwner
p466
I0
sVSex
p467
I0
sVStarFriend
p468
I0
sVHideInputBarFlag
p469
I0
sVChatRoomId
p470
I0
sVEncryChatRoomId
p471
g52
sVAttrStatus
p472
I0
sVStatues
p473
I0
stp474
Rp475
I1
bag34
(g307
g39
(dp476
VUserName
p477
V@cd134bf6f9a29f39125a39438c292cbd
p478
sVCity
p479
g52
sVSnsFlag
p480
I0
sVDisplayName
p481
g52
sVUniFriend
p482
I0
sVMemberCount
p483
I0
sVOwnerUin
p484
I0
sVMemberList
p485
g50
sVAlias
p486
g52
sVPYQuanPin
p487
Vweixinzhifu
p488
sVSignature
p489
V\u5e2e\u52a9\u89e3\u51b3\u5fae\u4fe1\u652f\u4ed8\u4e2d\u9047\u5230\u7684\u56f0\u96be\uff0c\u6536\u96c6\u5173\u4e8e\u5fae\u4fe1\u652f\u4ed8\u7684\u5efa\u8bae\u53cd\u9988\u3002
p490
sVRemarkPYInitial
p491
g52
sVContactFlag
p492
I3
sVUin
p493
I0
sVNickName
p494
V\u5fae\u4fe1\u652f\u4ed8
p495
sVAppAccountFlag
p496
I0
sVVerifyFlag
p497
I24
sVRemarkPYQuanPin
p498
g52
sVHeadImgUrl
p499
V/cgi-bin/mmwebwx-bin/webwxgeticon?seq=642130118&username=@cd134bf6f9a29f39125a39438c292cbd&skey=@crypt_763d4564_ae7cdd9d8456e0dcc85be0773196f064
p500
sVKeyWord
p501
Vgh_
p502
sVProvince
p503
V\u5e7f\u4e1c
p504
sVPYInitial
p505
VWXZF
p506
sVRemarkName
p507
g52
sVIsOwner
p508
I0
sVSex
p509
I0
sVStarFriend
p510
I0
sVHideInputBarFlag
p511
I0
sVChatRoomId
p512
I0
sVEncryChatRoomId
p513
g52
sVAttrStatus
p514
I0
sVStatues
p515
I0
stp516
Rp517
I1
bag34
(g307
g39
(dp518
VUserName
p519
V@ff110bd492d5cfc04f52927fce61aa32
p520
sVCity
p521
V\u6d77\u6dc0
p522
sVSnsFlag
p523
I0
sVDisplayName
p524
g52
sVUniFriend
p525
I0
sVMemberCount
p526
I0
sVOwnerUin
p527
I0
sVMemberList
p528
g50
sVAlias
p529
g52
sVPYQuanPin
p530
Vliangxingqiuwenhua
p531
sVSignature
p532
V\u91cf\u5316\u6d3e\u4f01\u4e1a\u6587\u5316\u5ba3\u4f20
p533
sVRemarkPYInitial
p534
g52
sVContactFlag
p535
I1
sVUin
p536
I0
sVNickName
p537
V\u91cf\u661f\u7403\u6587\u5316
p538
sVAppAccountFlag
p539
I0
sVVerifyFlag
p540
I8
sVRemarkPYQuanPin
p541
g52
sVHeadImgUrl
p542
V/cgi-bin/mmwebwx-bin/webwxgeticon?seq=669060042&username=@ff110bd492d5cfc04f52927fce61aa32&skey=@crypt_763d4564_ae7cdd9d8456e0dcc85be0773196f064
p543
sVKeyWord
p544
Vgh_
p545
sVProvince
p546
V\u5317\u4eac
p547
sVPYInitial
p548
VLXQWH
p549
sVRemarkName
p550
g52
sVIsOwner
p551
I0
sVSex
p552
I0
sVStarFriend
p553
I0
sVHideInputBarFlag
p554
I0
sVChatRoomId
p555
I0
sVEncryChatRoomId
p556
g52
sVAttrStatus
p557
I0
sVStatues
p558
I0
stp559
Rp560
I1
bag34
(g307
g39
(dp561
VUserName
p562
V@0b4cee48542913c10f684e99c0af407f
p563
sVCity
p564
V\u5e7f\u5dde
p565
sVSnsFlag
p566
I0
sVDisplayName
p567
g52
sVUniFriend
p568
I0
sVMemberCount
p569
I0
sVOwnerUin
p570
I0
sVMemberList
p571
g50
sVAlias
p572
g52
sVPYQuanPin
p573
Vweixinyouhu
p574
sVSignature
p575
V\u5173\u6ce8\u5fae\u4fe1\u6e38\u620f\u5b98\u65b9\u516c\u4f17\u5e10\u53f7\uff0c\u5373\u65f6\u6536\u53d6\u6e38\u620f\u8baf\u606f\uff0c\u8fd8\u80fd\u67e5\u770b\u5404\u6e38\u620f\u653b\u7565\uff0c\u62a2\u5148\u4f53\u9a8c\u6d3b\u52a8\uff01
p576
sVRemarkPYInitial
p577
g52
sVContactFlag
p578
I3
sVUin
p579
I0
sVNickName
p580
V\u5fae\u4fe1\u6e38\u620f
p581
sVAppAccountFlag
p582
I0
sVVerifyFlag
p583
I24
sVRemarkPYQuanPin
p584
g52
sVHeadImgUrl
p585
V/cgi-bin/mmwebwx-bin/webwxgeticon?seq=673200120&username=@0b4cee48542913c10f684e99c0af407f&skey=@crypt_763d4564_ae7cdd9d8456e0dcc85be0773196f064
p586
sVKeyWord
p587
Vgh_
p588
sVProvince
p589
V\u5e7f\u4e1c
p590
sVPYInitial
p591
VWXYH
p592
sVRemarkName
p593
g52
sVIsOwner
p594
I0
sVSex
p595
I0
sVStarFriend
p596
I0
sVHideInputBarFlag
p597
I0
sVChatRoomId
p598
I0
sVEncryChatRoomId
p599
g52
sVAttrStatus
p600
I0
sVStatues
p601
I0
stp602
Rp603
I1
bag34
(g307
g39
(dp604
VUserName
p605
V@6af465b043bd67f6ed3561a44bab2acc
p606
sVCity
p607
V\u660c\u5e73
p608
sVSnsFlag
p609
I0
sVDisplayName
p610
g52
sVUniFriend
p611
I0
sVMemberCount
p612
I0
sVOwnerUin
p613
I0
sVMemberList
p614
g50
sVAlias
p615
g52
sVPYQuanPin
p616
Vchangbamaisong
p617
sVSignature
p618
V\u4ef7\u683c\u67e5\u8be2 \u6d3b\u52a8\u63a8\u8350 \u9884\u7ea6
p619
sVRemarkPYInitial
p620
g52
sVContactFlag
p621
I3
sVUin
p622
I0
sVNickName
p623
V\u5531\u5427\u9ea6\u9882
p624
sVAppAccountFlag
p625
I0
sVVerifyFlag
p626
I24
sVRemarkPYQuanPin
p627
g52
sVHeadImgUrl
p628
V/cgi-bin/mmwebwx-bin/webwxgeticon?seq=688170023&username=@6af465b043bd67f6ed3561a44bab2acc&skey=@crypt_763d4564_ae7cdd9d8456e0dcc85be0773196f064
p629
sVKeyWord
p630
Vgh_
p631
sVProvince
p632
V\u5317\u4eac
p633
sVPYInitial
p634
VCBMS
p635
sVRemarkName
p636
g52
sVIsOwner
p637
I0
sVSex
p638
I0
sVStarFriend
p639
I0
sVHideInputBarFlag
p640
I0
sVChatRoomId
p641
I0
sVEncryChatRoomId
p642
g52
sVAttrStatus
p643
I0
sVStatues
p644
I0
stp645
Rp646
I1
batp647
Rp648
I1
bssS'loginInfo'
p649
(dp650
S'SyncKey'
p651
(dp652
VCount
p653
I4
sVList
p654
(lp655
(dp656
VVal
p657
I688179448
sVKey
p658
I1
sa(dp659
VVal
p660
I688179456
sVKey
p661
I2
sa(dp662
VVal
p663
I688179287
sVKey
p664
I3
sa(dp665
VVal
p666
I1560329805
sVKey
p667
I1000
sassS'syncUrl'
p668
S'https://webpush.wx.qq.com/cgi-bin/mmwebwx-bin'
p669
sS'skey'
p670
V@crypt_763d4564_ae7cdd9d8456e0dcc85be0773196f064
p671
sS'wxuin'
p672
V2538080433
p673
sS'synckey'
p674
S'1_688179448|2_688179456|3_688179287|1000_1560329805'
p675
sS'url'
p676
Vhttps://wx.qq.com/cgi-bin/mmwebwx-bin
p677
sS'pass_ticket'
p678
VICNrDBR%2B78WZWTqlA%2FvYgKhLvX%2BKmk5ALwa%2Fq4sFGWz6ZjSsW0fLegzxR3%2FSa1ne
p679
sS'deviceid'
p680
S'e360807578325797'
p681
sS'wxsid'
p682
Vt8F51vwA1FpuH3Vv
p683
sS'InviteStartCount'
p684
I40
sS'fileUrl'
p685
S'https://file.wx.qq.com/cgi-bin/mmwebwx-bin'
p686
sS'BaseRequest'
p687
(dp688
g54
g673
sS'Skey'
p689
g671
sS'DeviceID'
p690
g679
sS'Sid'
p691
g683
ssS'User'
p692
g34
(g38
g39
(dp693
g41
g31
sg42
g43
sg44
g43
sg45
I0
sg47
g50
sg51
g52
sg53
g52
sg77
I1
sg55
I0
sg56
I0
sg57
g43
sg58
g43
sg59
g52
sg60
g52
sg61
I0
sg62
I0
sg63
I1
sg64
g43
sg65
I0
sg68
I0
sg66
I49
sg67
I0
sg46
I0
sg69
g43
sg70
g52
sg71
I0
sg72
g73
sg74
g52
sg75
g76
sg54
I2538080433
sg78
I0
sg79
I0
stp694
Rp695
I1
bss.